target datalayout = "e-m:e-p270:32:32-p271:32:32-p272:64:64-i64:64-i128:128-f80:128-n8:16:32:64-S128"
target triple = "x86_64-unknown-linux-gnu"

%"class.llvh::StringRef" = type { ptr, i64 }
%"class.llvh::Twine" = type <{ %"union.llvh::Twine::Child", %"union.llvh::Twine::Child", i8, i8, [6 x i8] }>
%"union.llvh::Twine::Child" = type { ptr }
%"class.std::__cxx11::basic_string" = type { %"struct.std::__cxx11::basic_string<char>::_Alloc_hider", i64, %union.anon }
%"struct.std::__cxx11::basic_string<char>::_Alloc_hider" = type { ptr }
%union.anon = type { i64, [8 x i8] }
%"class.std::error_code" = type { i32, ptr }
%"class.llvh::Error" = type { ptr }
%"class.llvh::sys::fs::TempFile" = type <{ i8, [7 x i8], %"class.std::__cxx11::basic_string", i32, [4 x i8] }>

@.str.3 = private unnamed_addr constant [1 x i8] zeroinitializer, align 1

; Function Attrs: mustprogress nounwind uwtable
define linkonce_odr void @_ZNSt10error_codeC2EiRKNSt3_V214error_categoryE(ptr noundef nonnull align 8 dereferenceable(16) %this, i32 noundef %__v, ptr noundef nonnull align 8 dereferenceable(8) %__cat) unnamed_addr #0 comdat align 2 {
entry:
  %this.addr = alloca ptr, align 8
  %__v.addr = alloca i32, align 4
  %__cat.addr = alloca ptr, align 8
  store ptr %this, ptr %this.addr, align 8
  store i32 %__v, ptr %__v.addr, align 4
  store ptr %__cat, ptr %__cat.addr, align 8
  %this1 = load ptr, ptr %this.addr, align 8
  %_M_value = getelementptr inbounds %"class.std::error_code", ptr %this1, i32 0, i32 0
  %0 = load i32, ptr %__v.addr, align 4
  store i32 %0, ptr %_M_value, align 8
  %_M_cat = getelementptr inbounds %"class.std::error_code", ptr %this1, i32 0, i32 1
  %1 = load ptr, ptr %__cat.addr, align 8
  store ptr %1, ptr %_M_cat, align 8
  ret void
}

; Function Attrs: mustprogress nounwind uwtable
define linkonce_odr noundef zeroext i1 @_ZNKSt10error_codecvbEv(ptr noundef nonnull align 8 dereferenceable(16) %this) #0 comdat align 2 {
entry:
  %this.addr = alloca ptr, align 8
  store ptr %this, ptr %this.addr, align 8
  %this1 = load ptr, ptr %this.addr, align 8
  %_M_value = getelementptr inbounds %"class.std::error_code", ptr %this1, i32 0, i32 0
  %0 = load i32, ptr %_M_value, align 8
  %cmp = icmp ne i32 %0, 0
  ret i1 %cmp
}

; Function Attrs: mustprogress nounwind uwtable
define linkonce_odr hidden void @_ZN4llvh5TwineC2ERKNSt7__cxx1112basic_stringIcSt11char_traitsIcESaIcEEE(ptr noundef nonnull align 8 dereferenceable(18) %this, ptr noundef nonnull align 8 dereferenceable(32) %Str) unnamed_addr #0 comdat align 2 {
entry:
  %this.addr = alloca ptr, align 8
  %Str.addr = alloca ptr, align 8
  store ptr %this, ptr %this.addr, align 8
  store ptr %Str, ptr %Str.addr, align 8
  %this1 = load ptr, ptr %this.addr, align 8
  %LHSKind = getelementptr inbounds %"class.llvh::Twine", ptr %this1, i32 0, i32 2
  store i8 4, ptr %LHSKind, align 8
  %RHSKind = getelementptr inbounds %"class.llvh::Twine", ptr %this1, i32 0, i32 3
  store i8 1, ptr %RHSKind, align 1
  %0 = load ptr, ptr %Str.addr, align 8
  %LHS2 = getelementptr inbounds %"class.llvh::Twine", ptr %this1, i32 0, i32 0
  store ptr %0, ptr %LHS2, align 8
  ret void
}

; Function Attrs: mustprogress nounwind uwtable
define linkonce_odr void @_ZNSt10error_codeC2Ev(ptr noundef nonnull align 8 dereferenceable(16) %this) unnamed_addr #0 comdat align 2 {
entry:
  %this.addr = alloca ptr, align 8
  store ptr %this, ptr %this.addr, align 8
  %this1 = load ptr, ptr %this.addr, align 8
  %_M_value = getelementptr inbounds %"class.std::error_code", ptr %this1, i32 0, i32 0
  store i32 0, ptr %_M_value, align 8
  %_M_cat = getelementptr inbounds %"class.std::error_code", ptr %this1, i32 0, i32 1
  %call = call noundef nonnull align 8 dereferenceable(8) ptr @_ZNSt3_V215system_categoryEv() #13
  store ptr %call, ptr %_M_cat, align 8
  ret void
}

; Function Attrs: mustprogress nounwind uwtable
define hidden void @_ZN4llvh3sys2fs8TempFile7discardEv(ptr noalias sret(%"class.llvh::Error") align 8 %agg.result, ptr noundef nonnull align 8 dereferenceable(44) %this) #0 align 2 {
entry:
  %this.addr.i = alloca ptr, align 8
  %Str.addr.i = alloca ptr, align 8
  %result.ptr = alloca ptr, align 8
  %this.addr = alloca ptr, align 8
  %RemoveEC = alloca %"class.std::error_code", align 8
  %ref.tmp = alloca %"class.std::error_code", align 8
  %ref.tmp2 = alloca %"class.llvh::Twine", align 8
  %agg.tmp = alloca %"class.llvh::StringRef", align 8
  %EC = alloca %"class.std::error_code", align 8
  %agg.tmp17 = alloca %"class.std::error_code", align 8
  %agg.tmp20 = alloca %"class.std::error_code", align 8
  store ptr %agg.result, ptr %result.ptr, align 8
  store ptr %this, ptr %this.addr, align 8
  %this1 = load ptr, ptr %this.addr, align 8
  %Done = getelementptr inbounds %"class.llvh::sys::fs::TempFile", ptr %this1, i32 0, i32 0
  store i8 1, ptr %Done, align 8
  call void @_ZNSt10error_codeC2Ev(ptr noundef nonnull align 8 dereferenceable(16) %RemoveEC) #9
  %TmpName = getelementptr inbounds %"class.llvh::sys::fs::TempFile", ptr %this1, i32 0, i32 2
  %call = call noundef zeroext i1 @_ZNKSt7__cxx1112basic_stringIcSt11char_traitsIcESaIcEE5emptyEv(ptr noundef nonnull align 8 dereferenceable(32) %TmpName) #9
  br i1 %call, label %if.end, label %if.then

if.then:                                          ; preds = %entry
  %TmpName3 = getelementptr inbounds %"class.llvh::sys::fs::TempFile", ptr %this1, i32 0, i32 2
  call void @_ZN4llvh5TwineC2ERKNSt7__cxx1112basic_stringIcSt11char_traitsIcESaIcEEE(ptr noundef nonnull align 8 dereferenceable(18) %ref.tmp2, ptr noundef nonnull align 8 dereferenceable(32) %TmpName3)
  %call4 = call { i32, ptr } @_ZN4llvh3sys2fs6removeERKNS_5TwineEb(ptr noundef nonnull align 8 dereferenceable(18) %ref.tmp2, i1 noundef zeroext true)
  %0 = getelementptr inbounds { i32, ptr }, ptr %ref.tmp, i32 0, i32 0
  %1 = extractvalue { i32, ptr } %call4, 0
  store i32 %1, ptr %0, align 8
  %2 = getelementptr inbounds { i32, ptr }, ptr %ref.tmp, i32 0, i32 1
  %3 = extractvalue { i32, ptr } %call4, 1
  store ptr %3, ptr %2, align 8
  call void @llvm.memcpy.p0.p0.i64(ptr align 8 %RemoveEC, ptr align 8 %ref.tmp, i64 16, i1 false)
  %TmpName5 = getelementptr inbounds %"class.llvh::sys::fs::TempFile", ptr %this1, i32 0, i32 2
  store ptr %agg.tmp, ptr %this.addr.i, align 8
  store ptr %TmpName5, ptr %Str.addr.i, align 8
  %this1.i = load ptr, ptr %this.addr.i, align 8
  %4 = load ptr, ptr %Str.addr.i, align 8
  %call.i = call noundef ptr @_ZNKSt7__cxx1112basic_stringIcSt11char_traitsIcESaIcEE4dataEv(ptr noundef nonnull align 8 dereferenceable(32) %4) #9
  store ptr %call.i, ptr %this1.i, align 8
  %Length.i = getelementptr inbounds %"class.llvh::StringRef", ptr %this1.i, i32 0, i32 1
  %5 = load ptr, ptr %Str.addr.i, align 8
  %call2.i = call noundef i64 @_ZNKSt7__cxx1112basic_stringIcSt11char_traitsIcESaIcEE6lengthEv(ptr noundef nonnull align 8 dereferenceable(32) %5) #9
  store i64 %call2.i, ptr %Length.i, align 8
  %6 = getelementptr inbounds { ptr, i64 }, ptr %agg.tmp, i32 0, i32 0
  %7 = load ptr, ptr %6, align 8
  %8 = getelementptr inbounds { ptr, i64 }, ptr %agg.tmp, i32 0, i32 1
  %9 = load i64, ptr %8, align 8
  call void @_ZN4llvh3sys22DontRemoveFileOnSignalENS_9StringRefE(ptr %7, i64 %9)
  br label %if.end

if.end:                                           ; preds = %if.then, %entry
  %call6 = call noundef zeroext i1 @_ZNKSt10error_codecvbEv(ptr noundef nonnull align 8 dereferenceable(16) %RemoveEC) #9
  br i1 %call6, label %if.end10, label %if.then7

if.then7:                                         ; preds = %if.end
  %TmpName8 = getelementptr inbounds %"class.llvh::sys::fs::TempFile", ptr %this1, i32 0, i32 2
  %call9 = call noundef nonnull align 8 dereferenceable(32) ptr @_ZNSt7__cxx1112basic_stringIcSt11char_traitsIcESaIcEEaSEPKc(ptr noundef nonnull align 8 dereferenceable(32) %TmpName8, ptr noundef @.str.3)
  br label %if.end10

if.end10:                                         ; preds = %if.then7, %if.end
  %FD = getelementptr inbounds %"class.llvh::sys::fs::TempFile", ptr %this1, i32 0, i32 3
  %10 = load i32, ptr %FD, align 8
  %cmp = icmp ne i32 %10, -1
  br i1 %cmp, label %land.lhs.true, label %if.end18

land.lhs.true:                                    ; preds = %if.end10
  %FD11 = getelementptr inbounds %"class.llvh::sys::fs::TempFile", ptr %this1, i32 0, i32 3
  %11 = load i32, ptr %FD11, align 8
  %call12 = call i32 @close(i32 noundef %11)
  %cmp13 = icmp eq i32 %call12, -1
  br i1 %cmp13, label %if.then14, label %if.end18

if.then14:                                        ; preds = %land.lhs.true
  %call15 = call ptr @__errno_location() #13
  %12 = load i32, ptr %call15, align 4
  %call16 = call noundef nonnull align 8 dereferenceable(8) ptr @_ZNSt3_V216generic_categoryEv() #13
  call void @_ZNSt10error_codeC2EiRKNSt3_V214error_categoryE(ptr noundef nonnull align 8 dereferenceable(16) %EC, i32 noundef %12, ptr noundef nonnull align 8 dereferenceable(8) %call16) #9
  call void @llvm.memcpy.p0.p0.i64(ptr align 8 %agg.tmp17, ptr align 8 %EC, i64 16, i1 false)
  %13 = getelementptr inbounds { i32, ptr }, ptr %agg.tmp17, i32 0, i32 0
  %14 = load i32, ptr %13, align 8
  %15 = getelementptr inbounds { i32, ptr }, ptr %agg.tmp17, i32 0, i32 1
  %16 = load ptr, ptr %15, align 8
  call void @_ZN4llvh16errorCodeToErrorESt10error_code(ptr sret(%"class.llvh::Error") align 8 %agg.result, i32 %14, ptr %16)
  br label %return

if.end18:                                         ; preds = %land.lhs.true, %if.end10
  %FD19 = getelementptr inbounds %"class.llvh::sys::fs::TempFile", ptr %this1, i32 0, i32 3
  store i32 -1, ptr %FD19, align 8
  call void @llvm.memcpy.p0.p0.i64(ptr align 8 %agg.tmp20, ptr align 8 %RemoveEC, i64 16, i1 false)
  %17 = getelementptr inbounds { i32, ptr }, ptr %agg.tmp20, i32 0, i32 0
  %18 = load i32, ptr %17, align 8
  %19 = getelementptr inbounds { i32, ptr }, ptr %agg.tmp20, i32 0, i32 1
  %20 = load ptr, ptr %19, align 8
  call void @_ZN4llvh16errorCodeToErrorESt10error_code(ptr sret(%"class.llvh::Error") align 8 %agg.result, i32 %18, ptr %20)
  br label %return

return:                                           ; preds = %if.end18, %if.then14
  ret void
}