; Function Attrs: mustprogress nounwind uwtable
define hidden void @_ZN4llvh3sys2fs8TempFile7discardEv(ptr noalias sret(%"class.llvh::Error") align 8 %agg.result, ptr noundef nonnull align 8 dereferenceable(44) %this) local_unnamed_addr #0 align 2 {
entry:
  %ref.tmp2 = alloca %"class.llvh::Twine", align 8
  store i8 1, ptr %this, align 8
  %call.i5 = tail call noundef nonnull align 8 dereferenceable(8) ptr @_ZNSt3_V215system_categoryEv() #30
  %TmpName = getelementptr inbounds i8, ptr %this, i64 8
  %call = tail call noundef zeroext i1 @_ZNKSt7__cxx1112basic_stringIcSt11char_traitsIcESaIcEE5emptyEv(ptr noundef nonnull align 8 dereferenceable(32) %TmpName) #29
  br i1 %call, label %if.then7, label %if.end

if.end:                                           ; preds = %entry
  %LHSKind.i = getelementptr inbounds i8, ptr %ref.tmp2, i64 16
  store i8 4, ptr %LHSKind.i, align 8
  %RHSKind.i = getelementptr inbounds i8, ptr %ref.tmp2, i64 17
  store i8 1, ptr %RHSKind.i, align 1
  store ptr %TmpName, ptr %ref.tmp2, align 8
  %call4 = call { i32, ptr } @_ZN4llvh3sys2fs6removeERKNS_5TwineEb(ptr noundef nonnull align 8 dereferenceable(18) %ref.tmp2, i1 noundef zeroext true)
  %0 = extractvalue { i32, ptr } %call4, 0
  %1 = extractvalue { i32, ptr } %call4, 1
  %call.i = call noundef ptr @_ZNKSt7__cxx1112basic_stringIcSt11char_traitsIcESaIcEE4dataEv(ptr noundef nonnull align 8 dereferenceable(32) %TmpName) #29
  %call2.i = call noundef i64 @_ZNKSt7__cxx1112basic_stringIcSt11char_traitsIcESaIcEE6lengthEv(ptr noundef nonnull align 8 dereferenceable(32) %TmpName) #29
  call void @_ZN4llvh3sys22DontRemoveFileOnSignalENS_9StringRefE(ptr %call.i, i64 %call2.i) #29
  %cmp.i.not = icmp eq i32 %0, 0
  br i1 %cmp.i.not, label %if.then7, label %if.end10

if.then7:                                         ; preds = %entry, %if.end
  %RemoveEC.sroa.4.013 = phi ptr [ %1, %if.end ], [ %call.i5, %entry ]
  %call9 = call noundef nonnull align 8 dereferenceable(32) ptr @_ZNSt7__cxx1112basic_stringIcSt11char_traitsIcESaIcEEaSEPKc(ptr noundef nonnull align 8 dereferenceable(32) %TmpName, ptr noundef nonnull @.str.3) #29
  br label %if.end10

if.end10:                                         ; preds = %if.then7, %if.end
  %RemoveEC.sroa.4.014 = phi ptr [ %RemoveEC.sroa.4.013, %if.then7 ], [ %1, %if.end ]
  %RemoveEC.sroa.0.012 = phi i32 [ 0, %if.then7 ], [ %0, %if.end ]
  %FD = getelementptr inbounds i8, ptr %this, i64 40
  %2 = load i32, ptr %FD, align 8
  %cmp.not = icmp eq i32 %2, -1
  br i1 %cmp.not, label %if.end18, label %land.lhs.true

land.lhs.true:                                    ; preds = %if.end10
  %call12 = call i32 @close(i32 noundef %2) #29
  %cmp13 = icmp eq i32 %call12, -1
  br i1 %cmp13, label %if.then14, label %if.end18

if.then14:                                        ; preds = %land.lhs.true
  %call15 = tail call ptr @__errno_location() #30
  %3 = load i32, ptr %call15, align 4
  %call16 = tail call noundef nonnull align 8 dereferenceable(8) ptr @_ZNSt3_V216generic_categoryEv() #30
  call void @_ZN4llvh16errorCodeToErrorESt10error_code(ptr sret(%"class.llvh::Error") align 8 %agg.result, i32 %3, ptr nonnull %call16) #29
  br label %return

if.end18:                                         ; preds = %land.lhs.true, %if.end10
  store i32 -1, ptr %FD, align 8
  call void @_ZN4llvh16errorCodeToErrorESt10error_code(ptr sret(%"class.llvh::Error") align 8 %agg.result, i32 %RemoveEC.sroa.0.012, ptr %RemoveEC.sroa.4.014) #29
  br label %return

return:                                           ; preds = %if.end18, %if.then14
  ret void
}